target datalayout = "e-m:e-p270:32:32-p271:32:32-p272:64:64-i64:64-i128:128-f80:128-n8:16:32:64-S128"
target triple = "x86_64-pc-linux-gnu"

%struct._object = type { %union.anon, ptr }
%union.anon = type { i64 }

@_Py_NoneStruct = external global %struct._object, align 8
@.str.55 = private unnamed_addr constant [18 x i8] c"Oz#:err_setstring\00", align 1

; Function Attrs: nounwind uwtable
define internal ptr @_testcapi_err_setstring_impl(ptr noundef %0, ptr noundef %1, ptr noundef %2, i64 noundef %3) #0 {
  %5 = alloca ptr, align 8
  %6 = alloca ptr, align 8
  %7 = alloca ptr, align 8
  %8 = alloca i64, align 8
  store ptr %0, ptr %5, align 8, !tbaa !3
  store ptr %1, ptr %6, align 8, !tbaa !3
  store ptr %2, ptr %7, align 8, !tbaa !22
  store i64 %3, ptr %8, align 8, !tbaa !25
  br label %9

9:                                                ; preds = %4
  %10 = load ptr, ptr %6, align 8, !tbaa !3
  %11 = icmp eq ptr %10, @_Py_NoneStruct
  br i1 %11, label %12, label %13

12:                                               ; preds = %9
  store ptr null, ptr %6, align 8, !tbaa !3
  br label %13

13:                                               ; preds = %12, %9
  br label %14

14:                                               ; preds = %13
  %15 = load ptr, ptr %6, align 8, !tbaa !3
  %16 = load ptr, ptr %7, align 8, !tbaa !22
  call void @PyErr_SetString(ptr noundef %15, ptr noundef %16)
  ret ptr null
}

; Function Attrs: nounwind uwtable
define internal ptr @_testcapi_err_setstring(ptr noundef %0, ptr noundef %1, i64 noundef %2) #0 {
  %4 = alloca ptr, align 8
  %5 = alloca ptr, align 8
  %6 = alloca i64, align 8
  %7 = alloca ptr, align 8
  %8 = alloca ptr, align 8
  %9 = alloca ptr, align 8
  %10 = alloca i64, align 8
  store ptr %0, ptr %4, align 8, !tbaa !3
  store ptr %1, ptr %5, align 8, !tbaa !23
  store i64 %2, ptr %6, align 8, !tbaa !25
  call void @llvm.lifetime.start.p0(i64 8, ptr %7) #10
  store ptr null, ptr %7, align 8, !tbaa !3
  call void @llvm.lifetime.start.p0(i64 8, ptr %8) #10
  call void @llvm.lifetime.start.p0(i64 8, ptr %9) #10
  call void @llvm.lifetime.start.p0(i64 8, ptr %10) #10
  %11 = load ptr, ptr %5, align 8, !tbaa !23
  %12 = load i64, ptr %6, align 8, !tbaa !25
  %13 = call i32 (ptr, i64, ptr, ...) @_PyArg_ParseStack(ptr noundef %11, i64 noundef %12, ptr noundef @.str.55, ptr noundef %8, ptr noundef %9, ptr noundef %10)
  %14 = icmp ne i32 %13, 0
  br i1 %14, label %16, label %15

15:                                               ; preds = %3
  br label %22

16:                                               ; preds = %3
  %17 = load ptr, ptr %4, align 8, !tbaa !3
  %18 = load ptr, ptr %8, align 8, !tbaa !3
  %19 = load ptr, ptr %9, align 8, !tbaa !22
  %20 = load i64, ptr %10, align 8, !tbaa !25
  %21 = call ptr @_testcapi_err_setstring_impl(ptr noundef %17, ptr noundef %18, ptr noundef %19, i64 noundef %20)
  store ptr %21, ptr %7, align 8, !tbaa !3
  br label %22

22:                                               ; preds = %16, %15
  %23 = load ptr, ptr %7, align 8, !tbaa !3
  call void @llvm.lifetime.end.p0(i64 8, ptr %10) #10
  call void @llvm.lifetime.end.p0(i64 8, ptr %9) #10
  call void @llvm.lifetime.end.p0(i64 8, ptr %8) #10
  call void @llvm.lifetime.end.p0(i64 8, ptr %7) #10
  ret ptr %23
}