; Function Attrs: nounwind uwtable
define internal noalias noundef ptr @_testcapi_err_setstring(ptr readnone captures(none) %0, ptr noundef %1, i64 noundef %2) #0 {
  %4 = alloca ptr, align 8
  %5 = alloca ptr, align 8
  %6 = alloca i64, align 8
  call void @llvm.lifetime.start.p0(i64 8, ptr nonnull %4) #8
  call void @llvm.lifetime.start.p0(i64 8, ptr nonnull %5) #8
  call void @llvm.lifetime.start.p0(i64 8, ptr nonnull %6) #8
  %7 = call i32 (ptr, i64, ptr, ...) @_PyArg_ParseStack(ptr noundef %1, i64 noundef %2, ptr noundef nonnull @.str.55, ptr noundef nonnull %4, ptr noundef nonnull %5, ptr noundef nonnull %6) #8
  %.not = icmp eq i32 %7, 0
  br i1 %.not, label %12, label %8

8:                                                ; preds = %3
  %9 = load ptr, ptr %4, align 8, !tbaa !3
  %10 = load ptr, ptr %5, align 8, !tbaa !21
  %11 = icmp eq ptr %9, @_Py_NoneStruct
  %spec.store.select.i = select i1 %11, ptr null, ptr %9
  call void @PyErr_SetString(ptr noundef %spec.store.select.i, ptr noundef %10) #8
  br label %12

12:                                               ; preds = %3, %8
  call void @llvm.lifetime.end.p0(i64 8, ptr nonnull %6) #8
  call void @llvm.lifetime.end.p0(i64 8, ptr nonnull %5) #8
  call void @llvm.lifetime.end.p0(i64 8, ptr nonnull %4) #8
  ret ptr null
}